
Stop_Watch.elf:     file format elf32-avr

Sections:
Idx Name          Size      VMA       LMA       File off  Algn
  0 .text         0000038c  00000000  00000000  00000094  2**1
                  CONTENTS, ALLOC, LOAD, READONLY, CODE
  1 .data         0000000c  00800060  0000038c  00000420  2**0
                  CONTENTS, ALLOC, LOAD, DATA
  2 .bss          00000002  0080006c  0080006c  0000042c  2**0
                  ALLOC
  3 .comment      00000030  00000000  00000000  0000042c  2**0
                  CONTENTS, READONLY
  4 .note.gnu.avr.deviceinfo 0000003c  00000000  00000000  0000045c  2**2
                  CONTENTS, READONLY
  5 .debug_info   000004e6  00000000  00000000  00000498  2**0
                  CONTENTS, READONLY, DEBUGGING
  6 .debug_abbrev 000004a3  00000000  00000000  0000097e  2**0
                  CONTENTS, READONLY, DEBUGGING
  7 .debug_line   00000116  00000000  00000000  00000e21  2**0
                  CONTENTS, READONLY, DEBUGGING
  8 .debug_str    00000196  00000000  00000000  00000f37  2**0
                  CONTENTS, READONLY, DEBUGGING

Disassembly of section .text:

00000000 <__vectors>:
   0:	0c 94 2a 00 	jmp	0x54	; 0x54 <__ctors_end>
   4:	0c 94 47 00 	jmp	0x8e	; 0x8e <__bad_interrupt>
   8:	0c 94 47 00 	jmp	0x8e	; 0x8e <__bad_interrupt>
   c:	0c 94 47 00 	jmp	0x8e	; 0x8e <__bad_interrupt>
  10:	0c 94 47 00 	jmp	0x8e	; 0x8e <__bad_interrupt>
  14:	0c 94 47 00 	jmp	0x8e	; 0x8e <__bad_interrupt>
  18:	0c 94 47 00 	jmp	0x8e	; 0x8e <__bad_interrupt>
  1c:	0c 94 47 00 	jmp	0x8e	; 0x8e <__bad_interrupt>
  20:	0c 94 47 00 	jmp	0x8e	; 0x8e <__bad_interrupt>
  24:	0c 94 47 00 	jmp	0x8e	; 0x8e <__bad_interrupt>
  28:	0c 94 47 00 	jmp	0x8e	; 0x8e <__bad_interrupt>
  2c:	0c 94 47 00 	jmp	0x8e	; 0x8e <__bad_interrupt>
  30:	0c 94 47 00 	jmp	0x8e	; 0x8e <__bad_interrupt>
  34:	0c 94 47 00 	jmp	0x8e	; 0x8e <__bad_interrupt>
  38:	0c 94 47 00 	jmp	0x8e	; 0x8e <__bad_interrupt>
  3c:	0c 94 47 00 	jmp	0x8e	; 0x8e <__bad_interrupt>
  40:	0c 94 47 00 	jmp	0x8e	; 0x8e <__bad_interrupt>
  44:	0c 94 47 00 	jmp	0x8e	; 0x8e <__bad_interrupt>
  48:	0c 94 47 00 	jmp	0x8e	; 0x8e <__bad_interrupt>
  4c:	0c 94 47 00 	jmp	0x8e	; 0x8e <__bad_interrupt>
  50:	0c 94 47 00 	jmp	0x8e	; 0x8e <__bad_interrupt>

00000054 <__ctors_end>:
  54:	11 24       	eor	r1, r1
  56:	1f be       	out	0x3f, r1	; 63
  58:	cf e5       	ldi	r28, 0x5F	; 95
  5a:	d8 e0       	ldi	r29, 0x08	; 8
  5c:	de bf       	out	0x3e, r29	; 62
  5e:	cd bf       	out	0x3d, r28	; 61

00000060 <__do_copy_data>:
  60:	10 e0       	ldi	r17, 0x00	; 0
  62:	a0 e6       	ldi	r26, 0x60	; 96
  64:	b0 e0       	ldi	r27, 0x00	; 0
  66:	ec e8       	ldi	r30, 0x8C	; 140
  68:	f3 e0       	ldi	r31, 0x03	; 3
  6a:	02 c0       	rjmp	.+4      	; 0x70 <__do_copy_data+0x10>
  6c:	05 90       	lpm	r0, Z+
  6e:	0d 92       	st	X+, r0
  70:	ac 36       	cpi	r26, 0x6C	; 108
  72:	b1 07       	cpc	r27, r17
  74:	d9 f7       	brne	.-10     	; 0x6c <__do_copy_data+0xc>

00000076 <__do_clear_bss>:
  76:	20 e0       	ldi	r18, 0x00	; 0
  78:	ac e6       	ldi	r26, 0x6C	; 108
  7a:	b0 e0       	ldi	r27, 0x00	; 0
  7c:	01 c0       	rjmp	.+2      	; 0x80 <.do_clear_bss_start>

0000007e <.do_clear_bss_loop>:
  7e:	1d 92       	st	X+, r1

00000080 <.do_clear_bss_start>:
  80:	ae 36       	cpi	r26, 0x6E	; 110
  82:	b2 07       	cpc	r27, r18
  84:	e1 f7       	brne	.-8      	; 0x7e <.do_clear_bss_loop>
  86:	0e 94 cb 00 	call	0x196	; 0x196 <main>
  8a:	0c 94 c4 01 	jmp	0x388	; 0x388 <_exit>

0000008e <__bad_interrupt>:
  8e:	0c 94 00 00 	jmp	0	; 0x0 <__vectors>

00000092 <segment_diplay>:
  92:	cf 93       	push	r28
  94:	df 93       	push	r29
  96:	cd b7       	in	r28, 0x3d	; 61
  98:	de b7       	in	r29, 0x3e	; 62
  9a:	2a 97       	sbiw	r28, 0x0a	; 10
  9c:	0f b6       	in	r0, 0x3f	; 63
  9e:	f8 94       	cli
  a0:	de bf       	out	0x3e, r29	; 62
  a2:	0f be       	out	0x3f, r0	; 63
  a4:	cd bf       	out	0x3d, r28	; 61
  a6:	9a e0       	ldi	r25, 0x0A	; 10
  a8:	e1 e6       	ldi	r30, 0x61	; 97
  aa:	f0 e0       	ldi	r31, 0x00	; 0
  ac:	de 01       	movw	r26, r28
  ae:	11 96       	adiw	r26, 0x01	; 1
  b0:	01 90       	ld	r0, Z+
  b2:	0d 92       	st	X+, r0
  b4:	9a 95       	dec	r25
  b6:	e1 f7       	brne	.-8      	; 0xb0 <segment_diplay+0x1e>
  b8:	90 e4       	ldi	r25, 0x40	; 64
  ba:	95 bb       	out	0x15, r25	; 21
  bc:	6a e0       	ldi	r22, 0x0A	; 10
  be:	0e 94 b8 01 	call	0x370	; 0x370 <__udivmodqi4>
  c2:	e1 e0       	ldi	r30, 0x01	; 1
  c4:	f0 e0       	ldi	r31, 0x00	; 0
  c6:	ec 0f       	add	r30, r28
  c8:	fd 1f       	adc	r31, r29
  ca:	e9 0f       	add	r30, r25
  cc:	f1 1d       	adc	r31, r1
  ce:	90 81       	ld	r25, Z
  d0:	99 0f       	add	r25, r25
  d2:	9b bb       	out	0x1b, r25	; 27
  d4:	ef e1       	ldi	r30, 0x1F	; 31
  d6:	fe e4       	ldi	r31, 0x4E	; 78
  d8:	31 97       	sbiw	r30, 0x01	; 1
  da:	f1 f7       	brne	.-4      	; 0xd8 <segment_diplay+0x46>
  dc:	00 c0       	rjmp	.+0      	; 0xde <segment_diplay+0x4c>
  de:	00 00       	nop
  e0:	90 e8       	ldi	r25, 0x80	; 128
  e2:	95 bb       	out	0x15, r25	; 21
  e4:	e1 e0       	ldi	r30, 0x01	; 1
  e6:	f0 e0       	ldi	r31, 0x00	; 0
  e8:	ec 0f       	add	r30, r28
  ea:	fd 1f       	adc	r31, r29
  ec:	e8 0f       	add	r30, r24
  ee:	f1 1d       	adc	r31, r1
  f0:	80 81       	ld	r24, Z
  f2:	88 0f       	add	r24, r24
  f4:	8b bb       	out	0x1b, r24	; 27
  f6:	8f e1       	ldi	r24, 0x1F	; 31
  f8:	9e e4       	ldi	r25, 0x4E	; 78
  fa:	01 97       	sbiw	r24, 0x01	; 1
  fc:	f1 f7       	brne	.-4      	; 0xfa <segment_diplay+0x68>
  fe:	00 c0       	rjmp	.+0      	; 0x100 <segment_diplay+0x6e>
 100:	00 00       	nop
 102:	2a 96       	adiw	r28, 0x0a	; 10
 104:	0f b6       	in	r0, 0x3f	; 63
 106:	f8 94       	cli
 108:	de bf       	out	0x3e, r29	; 62
 10a:	0f be       	out	0x3f, r0	; 63
 10c:	cd bf       	out	0x3d, r28	; 61
 10e:	df 91       	pop	r29
 110:	cf 91       	pop	r28
 112:	08 95       	ret

00000114 <segment_diplay2>:
 114:	cf 93       	push	r28
 116:	df 93       	push	r29
 118:	cd b7       	in	r28, 0x3d	; 61
 11a:	de b7       	in	r29, 0x3e	; 62
 11c:	2a 97       	sbiw	r28, 0x0a	; 10
 11e:	0f b6       	in	r0, 0x3f	; 63
 120:	f8 94       	cli
 122:	de bf       	out	0x3e, r29	; 62
 124:	0f be       	out	0x3f, r0	; 63
 126:	cd bf       	out	0x3d, r28	; 61
 128:	9a e0       	ldi	r25, 0x0A	; 10
 12a:	e1 e6       	ldi	r30, 0x61	; 97
 12c:	f0 e0       	ldi	r31, 0x00	; 0
 12e:	de 01       	movw	r26, r28
 130:	11 96       	adiw	r26, 0x01	; 1
 132:	01 90       	ld	r0, Z+
 134:	0d 92       	st	X+, r0
 136:	9a 95       	dec	r25
 138:	e1 f7       	brne	.-8      	; 0x132 <segment_diplay2+0x1e>
 13a:	90 e8       	ldi	r25, 0x80	; 128
 13c:	95 bb       	out	0x15, r25	; 21
 13e:	6a e0       	ldi	r22, 0x0A	; 10
 140:	0e 94 b8 01 	call	0x370	; 0x370 <__udivmodqi4>
 144:	e1 e0       	ldi	r30, 0x01	; 1
 146:	f0 e0       	ldi	r31, 0x00	; 0
 148:	ec 0f       	add	r30, r28
 14a:	fd 1f       	adc	r31, r29
 14c:	e8 0f       	add	r30, r24
 14e:	f1 1d       	adc	r31, r1
 150:	80 81       	ld	r24, Z
 152:	88 0f       	add	r24, r24
 154:	8b bb       	out	0x1b, r24	; 27
 156:	ef ec       	ldi	r30, 0xCF	; 207
 158:	f7 e0       	ldi	r31, 0x07	; 7
 15a:	31 97       	sbiw	r30, 0x01	; 1
 15c:	f1 f7       	brne	.-4      	; 0x15a <segment_diplay2+0x46>
 15e:	00 c0       	rjmp	.+0      	; 0x160 <segment_diplay2+0x4c>
 160:	00 00       	nop
 162:	80 e4       	ldi	r24, 0x40	; 64
 164:	85 bb       	out	0x15, r24	; 21
 166:	e1 e0       	ldi	r30, 0x01	; 1
 168:	f0 e0       	ldi	r31, 0x00	; 0
 16a:	ec 0f       	add	r30, r28
 16c:	fd 1f       	adc	r31, r29
 16e:	e9 0f       	add	r30, r25
 170:	f1 1d       	adc	r31, r1
 172:	80 81       	ld	r24, Z
 174:	88 0f       	add	r24, r24
 176:	8b bb       	out	0x1b, r24	; 27
 178:	8f ec       	ldi	r24, 0xCF	; 207
 17a:	97 e0       	ldi	r25, 0x07	; 7
 17c:	01 97       	sbiw	r24, 0x01	; 1
 17e:	f1 f7       	brne	.-4      	; 0x17c <segment_diplay2+0x68>
 180:	00 c0       	rjmp	.+0      	; 0x182 <segment_diplay2+0x6e>
 182:	00 00       	nop
 184:	2a 96       	adiw	r28, 0x0a	; 10
 186:	0f b6       	in	r0, 0x3f	; 63
 188:	f8 94       	cli
 18a:	de bf       	out	0x3e, r29	; 62
 18c:	0f be       	out	0x3f, r0	; 63
 18e:	cd bf       	out	0x3d, r28	; 61
 190:	df 91       	pop	r29
 192:	cf 91       	pop	r28
 194:	08 95       	ret

00000196 <main>:
 196:	14 ba       	out	0x14, r1	; 20
 198:	8f ef       	ldi	r24, 0xFF	; 255
 19a:	8a bb       	out	0x1a, r24	; 26
 19c:	11 ba       	out	0x11, r1	; 17
 19e:	80 91 60 00 	lds	r24, 0x0060	; 0x800060 <__DATA_REGION_ORIGIN__>
 1a2:	83 30       	cpi	r24, 0x03	; 3
 1a4:	10 f0       	brcs	.+4      	; 0x1aa <main+0x14>
 1a6:	10 92 60 00 	sts	0x0060, r1	; 0x800060 <__DATA_REGION_ORIGIN__>
 1aa:	80 91 60 00 	lds	r24, 0x0060	; 0x800060 <__DATA_REGION_ORIGIN__>
 1ae:	81 11       	cpse	r24, r1
 1b0:	73 c0       	rjmp	.+230    	; 0x298 <main+0x102>
 1b2:	80 91 6d 00 	lds	r24, 0x006D	; 0x80006d <c>
 1b6:	80 93 6c 00 	sts	0x006C, r24	; 0x80006c <__data_end>
 1ba:	80 91 6c 00 	lds	r24, 0x006C	; 0x80006c <__data_end>
 1be:	87 fd       	sbrc	r24, 7
 1c0:	4e c0       	rjmp	.+156    	; 0x25e <main+0xc8>
 1c2:	c3 e3       	ldi	r28, 0x33	; 51
 1c4:	82 99       	sbic	0x10, 2	; 16
 1c6:	12 c0       	rjmp	.+36     	; 0x1ec <main+0x56>
 1c8:	80 91 6d 00 	lds	r24, 0x006D	; 0x80006d <c>
 1cc:	80 93 6c 00 	sts	0x006C, r24	; 0x80006c <__data_end>
 1d0:	8f e1       	ldi	r24, 0x1F	; 31
 1d2:	9e e4       	ldi	r25, 0x4E	; 78
 1d4:	01 97       	sbiw	r24, 0x01	; 1
 1d6:	f1 f7       	brne	.-4      	; 0x1d4 <main+0x3e>
 1d8:	00 c0       	rjmp	.+0      	; 0x1da <main+0x44>
 1da:	00 00       	nop
 1dc:	82 9b       	sbis	0x10, 2	; 16
 1de:	fe cf       	rjmp	.-4      	; 0x1dc <main+0x46>
 1e0:	8f e1       	ldi	r24, 0x1F	; 31
 1e2:	9e e4       	ldi	r25, 0x4E	; 78
 1e4:	01 97       	sbiw	r24, 0x01	; 1
 1e6:	f1 f7       	brne	.-4      	; 0x1e4 <main+0x4e>
 1e8:	00 c0       	rjmp	.+0      	; 0x1ea <main+0x54>
 1ea:	00 00       	nop
 1ec:	83 9b       	sbis	0x10, 3	; 16
 1ee:	03 c0       	rjmp	.+6      	; 0x1f6 <main+0x60>
 1f0:	84 99       	sbic	0x10, 4	; 16
 1f2:	12 c0       	rjmp	.+36     	; 0x218 <main+0x82>
 1f4:	17 c0       	rjmp	.+46     	; 0x224 <main+0x8e>
 1f6:	8f e1       	ldi	r24, 0x1F	; 31
 1f8:	9e e4       	ldi	r25, 0x4E	; 78
 1fa:	01 97       	sbiw	r24, 0x01	; 1
 1fc:	f1 f7       	brne	.-4      	; 0x1fa <main+0x64>
 1fe:	00 c0       	rjmp	.+0      	; 0x200 <main+0x6a>
 200:	00 00       	nop
 202:	83 9b       	sbis	0x10, 3	; 16
 204:	fe cf       	rjmp	.-4      	; 0x202 <main+0x6c>
 206:	80 91 6c 00 	lds	r24, 0x006C	; 0x80006c <__data_end>
 20a:	0e 94 49 00 	call	0x92	; 0x92 <segment_diplay>
 20e:	83 99       	sbic	0x10, 3	; 16
 210:	fa cf       	rjmp	.-12     	; 0x206 <main+0x70>
 212:	83 9b       	sbis	0x10, 3	; 16
 214:	fe cf       	rjmp	.-4      	; 0x212 <main+0x7c>
 216:	ec cf       	rjmp	.-40     	; 0x1f0 <main+0x5a>
 218:	80 91 6c 00 	lds	r24, 0x006C	; 0x80006c <__data_end>
 21c:	0e 94 49 00 	call	0x92	; 0x92 <segment_diplay>
 220:	c1 50       	subi	r28, 0x01	; 1
 222:	81 f6       	brne	.-96     	; 0x1c4 <main+0x2e>
 224:	84 99       	sbic	0x10, 4	; 16
 226:	0e c0       	rjmp	.+28     	; 0x244 <main+0xae>
 228:	84 9b       	sbis	0x10, 4	; 16
 22a:	fe cf       	rjmp	.-4      	; 0x228 <main+0x92>
 22c:	8f e1       	ldi	r24, 0x1F	; 31
 22e:	9e e4       	ldi	r25, 0x4E	; 78
 230:	01 97       	sbiw	r24, 0x01	; 1
 232:	f1 f7       	brne	.-4      	; 0x230 <main+0x9a>
 234:	00 c0       	rjmp	.+0      	; 0x236 <main+0xa0>
 236:	00 00       	nop
 238:	80 91 60 00 	lds	r24, 0x0060	; 0x800060 <__DATA_REGION_ORIGIN__>
 23c:	8f 5f       	subi	r24, 0xFF	; 255
 23e:	80 93 60 00 	sts	0x0060, r24	; 0x800060 <__DATA_REGION_ORIGIN__>
 242:	0d c0       	rjmp	.+26     	; 0x25e <main+0xc8>
 244:	80 91 6c 00 	lds	r24, 0x006C	; 0x80006c <__data_end>
 248:	81 50       	subi	r24, 0x01	; 1
 24a:	b5 cf       	rjmp	.-150    	; 0x1b6 <main+0x20>
 24c:	80 e0       	ldi	r24, 0x00	; 0
 24e:	0e 94 49 00 	call	0x92	; 0x92 <segment_diplay>
 252:	80 91 6c 00 	lds	r24, 0x006C	; 0x80006c <__data_end>
 256:	87 fd       	sbrc	r24, 7
 258:	07 c0       	rjmp	.+14     	; 0x268 <main+0xd2>
 25a:	84 9b       	sbis	0x10, 4	; 16
 25c:	10 c0       	rjmp	.+32     	; 0x27e <main+0xe8>
 25e:	80 91 6c 00 	lds	r24, 0x006C	; 0x80006c <__data_end>
 262:	87 fd       	sbrc	r24, 7
 264:	f3 cf       	rjmp	.-26     	; 0x24c <main+0xb6>
 266:	18 c0       	rjmp	.+48     	; 0x298 <main+0x102>
 268:	82 99       	sbic	0x10, 2	; 16
 26a:	f7 cf       	rjmp	.-18     	; 0x25a <main+0xc4>
 26c:	84 9b       	sbis	0x10, 4	; 16
 26e:	fe cf       	rjmp	.-4      	; 0x26c <main+0xd6>
 270:	8f e1       	ldi	r24, 0x1F	; 31
 272:	9e e4       	ldi	r25, 0x4E	; 78
 274:	01 97       	sbiw	r24, 0x01	; 1
 276:	f1 f7       	brne	.-4      	; 0x274 <main+0xde>
 278:	00 c0       	rjmp	.+0      	; 0x27a <main+0xe4>
 27a:	00 00       	nop
 27c:	0d c0       	rjmp	.+26     	; 0x298 <main+0x102>
 27e:	84 9b       	sbis	0x10, 4	; 16
 280:	fe cf       	rjmp	.-4      	; 0x27e <main+0xe8>
 282:	8f e1       	ldi	r24, 0x1F	; 31
 284:	9e e4       	ldi	r25, 0x4E	; 78
 286:	01 97       	sbiw	r24, 0x01	; 1
 288:	f1 f7       	brne	.-4      	; 0x286 <main+0xf0>
 28a:	00 c0       	rjmp	.+0      	; 0x28c <main+0xf6>
 28c:	00 00       	nop
 28e:	80 91 60 00 	lds	r24, 0x0060	; 0x800060 <__DATA_REGION_ORIGIN__>
 292:	8f 5f       	subi	r24, 0xFF	; 255
 294:	80 93 60 00 	sts	0x0060, r24	; 0x800060 <__DATA_REGION_ORIGIN__>
 298:	80 91 60 00 	lds	r24, 0x0060	; 0x800060 <__DATA_REGION_ORIGIN__>
 29c:	81 30       	cpi	r24, 0x01	; 1
 29e:	99 f5       	brne	.+102    	; 0x306 <main+0x170>
 2a0:	82 99       	sbic	0x10, 2	; 16
 2a2:	16 c0       	rjmp	.+44     	; 0x2d0 <main+0x13a>
 2a4:	9f ef       	ldi	r25, 0xFF	; 255
 2a6:	23 ef       	ldi	r18, 0xF3	; 243
 2a8:	81 e0       	ldi	r24, 0x01	; 1
 2aa:	91 50       	subi	r25, 0x01	; 1
 2ac:	20 40       	sbci	r18, 0x00	; 0
 2ae:	80 40       	sbci	r24, 0x00	; 0
 2b0:	e1 f7       	brne	.-8      	; 0x2aa <main+0x114>
 2b2:	00 c0       	rjmp	.+0      	; 0x2b4 <main+0x11e>
 2b4:	00 00       	nop
 2b6:	82 9b       	sbis	0x10, 2	; 16
 2b8:	fe cf       	rjmp	.-4      	; 0x2b6 <main+0x120>
 2ba:	8f e1       	ldi	r24, 0x1F	; 31
 2bc:	9e e4       	ldi	r25, 0x4E	; 78
 2be:	01 97       	sbiw	r24, 0x01	; 1
 2c0:	f1 f7       	brne	.-4      	; 0x2be <main+0x128>
 2c2:	00 c0       	rjmp	.+0      	; 0x2c4 <main+0x12e>
 2c4:	00 00       	nop
 2c6:	80 91 6d 00 	lds	r24, 0x006D	; 0x80006d <c>
 2ca:	86 5f       	subi	r24, 0xF6	; 246
 2cc:	80 93 6d 00 	sts	0x006D, r24	; 0x80006d <c>
 2d0:	80 91 6d 00 	lds	r24, 0x006D	; 0x80006d <c>
 2d4:	84 36       	cpi	r24, 0x64	; 100
 2d6:	10 f0       	brcs	.+4      	; 0x2dc <main+0x146>
 2d8:	10 92 6d 00 	sts	0x006D, r1	; 0x80006d <c>
 2dc:	84 99       	sbic	0x10, 4	; 16
 2de:	0e c0       	rjmp	.+28     	; 0x2fc <main+0x166>
 2e0:	84 9b       	sbis	0x10, 4	; 16
 2e2:	fe cf       	rjmp	.-4      	; 0x2e0 <main+0x14a>
 2e4:	8f e1       	ldi	r24, 0x1F	; 31
 2e6:	9e e4       	ldi	r25, 0x4E	; 78
 2e8:	01 97       	sbiw	r24, 0x01	; 1
 2ea:	f1 f7       	brne	.-4      	; 0x2e8 <main+0x152>
 2ec:	00 c0       	rjmp	.+0      	; 0x2ee <main+0x158>
 2ee:	00 00       	nop
 2f0:	80 91 60 00 	lds	r24, 0x0060	; 0x800060 <__DATA_REGION_ORIGIN__>
 2f4:	8f 5f       	subi	r24, 0xFF	; 255
 2f6:	80 93 60 00 	sts	0x0060, r24	; 0x800060 <__DATA_REGION_ORIGIN__>
 2fa:	05 c0       	rjmp	.+10     	; 0x306 <main+0x170>
 2fc:	80 91 6d 00 	lds	r24, 0x006D	; 0x80006d <c>
 300:	0e 94 8a 00 	call	0x114	; 0x114 <segment_diplay2>
 304:	cd cf       	rjmp	.-102    	; 0x2a0 <main+0x10a>
 306:	80 91 60 00 	lds	r24, 0x0060	; 0x800060 <__DATA_REGION_ORIGIN__>
 30a:	82 30       	cpi	r24, 0x02	; 2
 30c:	09 f0       	breq	.+2      	; 0x310 <main+0x17a>
 30e:	47 cf       	rjmp	.-370    	; 0x19e <main+0x8>
 310:	83 99       	sbic	0x10, 3	; 16
 312:	13 c0       	rjmp	.+38     	; 0x33a <main+0x1a4>
 314:	8f e1       	ldi	r24, 0x1F	; 31
 316:	9e e4       	ldi	r25, 0x4E	; 78
 318:	01 97       	sbiw	r24, 0x01	; 1
 31a:	f1 f7       	brne	.-4      	; 0x318 <main+0x182>
 31c:	00 c0       	rjmp	.+0      	; 0x31e <main+0x188>
 31e:	00 00       	nop
 320:	83 9b       	sbis	0x10, 3	; 16
 322:	fe cf       	rjmp	.-4      	; 0x320 <main+0x18a>
 324:	8f e1       	ldi	r24, 0x1F	; 31
 326:	9e e4       	ldi	r25, 0x4E	; 78
 328:	01 97       	sbiw	r24, 0x01	; 1
 32a:	f1 f7       	brne	.-4      	; 0x328 <main+0x192>
 32c:	00 c0       	rjmp	.+0      	; 0x32e <main+0x198>
 32e:	00 00       	nop
 330:	80 91 6d 00 	lds	r24, 0x006D	; 0x80006d <c>
 334:	8f 5f       	subi	r24, 0xFF	; 255
 336:	80 93 6d 00 	sts	0x006D, r24	; 0x80006d <c>
 33a:	80 91 6d 00 	lds	r24, 0x006D	; 0x80006d <c>
 33e:	84 36       	cpi	r24, 0x64	; 100
 340:	10 f0       	brcs	.+4      	; 0x346 <main+0x1b0>
 342:	10 92 6d 00 	sts	0x006D, r1	; 0x80006d <c>
 346:	84 99       	sbic	0x10, 4	; 16
 348:	0e c0       	rjmp	.+28     	; 0x366 <main+0x1d0>
 34a:	84 9b       	sbis	0x10, 4	; 16
 34c:	fe cf       	rjmp	.-4      	; 0x34a <main+0x1b4>
 34e:	8f e1       	ldi	r24, 0x1F	; 31
 350:	9e e4       	ldi	r25, 0x4E	; 78
 352:	01 97       	sbiw	r24, 0x01	; 1
 354:	f1 f7       	brne	.-4      	; 0x352 <main+0x1bc>
 356:	00 c0       	rjmp	.+0      	; 0x358 <main+0x1c2>
 358:	00 00       	nop
 35a:	80 91 60 00 	lds	r24, 0x0060	; 0x800060 <__DATA_REGION_ORIGIN__>
 35e:	8f 5f       	subi	r24, 0xFF	; 255
 360:	80 93 60 00 	sts	0x0060, r24	; 0x800060 <__DATA_REGION_ORIGIN__>
 364:	1c cf       	rjmp	.-456    	; 0x19e <main+0x8>
 366:	80 91 6d 00 	lds	r24, 0x006D	; 0x80006d <c>
 36a:	0e 94 49 00 	call	0x92	; 0x92 <segment_diplay>
 36e:	d0 cf       	rjmp	.-96     	; 0x310 <main+0x17a>

00000370 <__udivmodqi4>:
 370:	99 1b       	sub	r25, r25
 372:	79 e0       	ldi	r23, 0x09	; 9
 374:	04 c0       	rjmp	.+8      	; 0x37e <__udivmodqi4_ep>

00000376 <__udivmodqi4_loop>:
 376:	99 1f       	adc	r25, r25
 378:	96 17       	cp	r25, r22
 37a:	08 f0       	brcs	.+2      	; 0x37e <__udivmodqi4_ep>
 37c:	96 1b       	sub	r25, r22

0000037e <__udivmodqi4_ep>:
 37e:	88 1f       	adc	r24, r24
 380:	7a 95       	dec	r23
 382:	c9 f7       	brne	.-14     	; 0x376 <__udivmodqi4_loop>
 384:	80 95       	com	r24
 386:	08 95       	ret

00000388 <_exit>:
 388:	f8 94       	cli

0000038a <__stop_program>:
 38a:	ff cf       	rjmp	.-2      	; 0x38a <__stop_program>
